
My_ATtiny817_Xplained_Mini.elf:     file format elf32-avr

Sections:
Idx Name          Size      VMA       LMA       File off  Algn
  0 .data         00000000  00803e00  00803e00  000000d6  2**0
                  CONTENTS, ALLOC, LOAD, DATA
  1 .text         00000082  00000000  00000000  00000054  2**1
                  CONTENTS, ALLOC, LOAD, READONLY, CODE
  2 .comment      00000030  00000000  00000000  000000d6  2**0
                  CONTENTS, READONLY
  3 .note.gnu.avr.deviceinfo 0000003c  00000000  00000000  00000108  2**2
                  CONTENTS, READONLY
  4 .debug_info   000016bc  00000000  00000000  00000144  2**0
                  CONTENTS, READONLY, DEBUGGING
  5 .debug_abbrev 00001582  00000000  00000000  00001800  2**0
                  CONTENTS, READONLY, DEBUGGING
  6 .debug_line   00000136  00000000  00000000  00002d82  2**0
                  CONTENTS, READONLY, DEBUGGING
  7 .debug_str    000009a7  00000000  00000000  00002eb8  2**0
                  CONTENTS, READONLY, DEBUGGING

Disassembly of section .text:

00000000 <__vectors>:
   0:	19 c0       	rjmp	.+50     	; 0x34 <__ctors_end>
   2:	28 c0       	rjmp	.+80     	; 0x54 <__bad_interrupt>
   4:	27 c0       	rjmp	.+78     	; 0x54 <__bad_interrupt>
   6:	26 c0       	rjmp	.+76     	; 0x54 <__bad_interrupt>
   8:	25 c0       	rjmp	.+74     	; 0x54 <__bad_interrupt>
   a:	24 c0       	rjmp	.+72     	; 0x54 <__bad_interrupt>
   c:	23 c0       	rjmp	.+70     	; 0x54 <__bad_interrupt>
   e:	22 c0       	rjmp	.+68     	; 0x54 <__bad_interrupt>
  10:	21 c0       	rjmp	.+66     	; 0x54 <__bad_interrupt>
  12:	20 c0       	rjmp	.+64     	; 0x54 <__bad_interrupt>
  14:	1f c0       	rjmp	.+62     	; 0x54 <__bad_interrupt>
  16:	1e c0       	rjmp	.+60     	; 0x54 <__bad_interrupt>
  18:	1d c0       	rjmp	.+58     	; 0x54 <__bad_interrupt>
  1a:	1c c0       	rjmp	.+56     	; 0x54 <__bad_interrupt>
  1c:	1b c0       	rjmp	.+54     	; 0x54 <__bad_interrupt>
  1e:	1a c0       	rjmp	.+52     	; 0x54 <__bad_interrupt>
  20:	19 c0       	rjmp	.+50     	; 0x54 <__bad_interrupt>
  22:	18 c0       	rjmp	.+48     	; 0x54 <__bad_interrupt>
  24:	17 c0       	rjmp	.+46     	; 0x54 <__bad_interrupt>
  26:	16 c0       	rjmp	.+44     	; 0x54 <__bad_interrupt>
  28:	15 c0       	rjmp	.+42     	; 0x54 <__bad_interrupt>
  2a:	14 c0       	rjmp	.+40     	; 0x54 <__bad_interrupt>
  2c:	13 c0       	rjmp	.+38     	; 0x54 <__bad_interrupt>
  2e:	12 c0       	rjmp	.+36     	; 0x54 <__bad_interrupt>
  30:	11 c0       	rjmp	.+34     	; 0x54 <__bad_interrupt>
  32:	10 c0       	rjmp	.+32     	; 0x54 <__bad_interrupt>

00000034 <__ctors_end>:
  34:	11 24       	eor	r1, r1
  36:	1f be       	out	0x3f, r1	; 63
  38:	cf ef       	ldi	r28, 0xFF	; 255
  3a:	cd bf       	out	0x3d, r28	; 61
  3c:	df e3       	ldi	r29, 0x3F	; 63
  3e:	de bf       	out	0x3e, r29	; 62

00000040 <__do_clear_bss>:
  40:	2e e3       	ldi	r18, 0x3E	; 62
  42:	a0 e0       	ldi	r26, 0x00	; 0
  44:	be e3       	ldi	r27, 0x3E	; 62
  46:	01 c0       	rjmp	.+2      	; 0x4a <.do_clear_bss_start>

00000048 <.do_clear_bss_loop>:
  48:	1d 92       	st	X+, r1

0000004a <.do_clear_bss_start>:
  4a:	a0 30       	cpi	r26, 0x00	; 0
  4c:	b2 07       	cpc	r27, r18
  4e:	e1 f7       	brne	.-8      	; 0x48 <.do_clear_bss_loop>
  50:	02 d0       	rcall	.+4      	; 0x56 <main>
  52:	15 c0       	rjmp	.+42     	; 0x7e <_exit>

00000054 <__bad_interrupt>:
  54:	d5 cf       	rjmp	.-86     	; 0x0 <__vectors>

00000056 <main>:
  56:	40 9a       	sbi	0x08, 0	; 8
  58:	48 98       	cbi	0x09, 0	; 9
  5a:	2a e2       	ldi	r18, 0x2A	; 42
  5c:	8c e2       	ldi	r24, 0x2C	; 44
  5e:	9a e0       	ldi	r25, 0x0A	; 10
  60:	21 50       	subi	r18, 0x01	; 1
  62:	80 40       	sbci	r24, 0x00	; 0
  64:	90 40       	sbci	r25, 0x00	; 0
  66:	e1 f7       	brne	.-8      	; 0x60 <main+0xa>
  68:	00 00       	nop
  6a:	48 9a       	sbi	0x09, 0	; 9
  6c:	2a e2       	ldi	r18, 0x2A	; 42
  6e:	8c e2       	ldi	r24, 0x2C	; 44
  70:	9a e0       	ldi	r25, 0x0A	; 10
  72:	21 50       	subi	r18, 0x01	; 1
  74:	80 40       	sbci	r24, 0x00	; 0
  76:	90 40       	sbci	r25, 0x00	; 0
  78:	e1 f7       	brne	.-8      	; 0x72 <main+0x1c>
  7a:	00 00       	nop
  7c:	ed cf       	rjmp	.-38     	; 0x58 <main+0x2>

0000007e <_exit>:
  7e:	f8 94       	cli

00000080 <__stop_program>:
  80:	ff cf       	rjmp	.-2      	; 0x80 <__stop_program>
